; Function Attrs: mustprogress uwtable
define void @_ZN6icu_7510UnicodeSet20applyPropertyPatternERNS_21RuleCharacterIteratorERNS_13UnicodeStringER10UErrorCode(ptr noundef nonnull align 8 dereferenceable(200) %this, ptr noundef nonnull align 8 dereferenceable(36) %chars, ptr noundef nonnull align 8 dereferenceable(64) %rebuiltPat, ptr noundef nonnull align 4 dereferenceable(4) %ec) local_unnamed_addr #1 align 2 personality ptr @__gxx_personality_v0 {
entry:
  %pattern = alloca %"class.icu_75::UnicodeString", align 8
  %pos = alloca %"class.icu_75::ParsePosition", align 8
  %0 = load i32, ptr %ec, align 4
  %cmp.i = icmp slt i32 %0, 1
  br i1 %cmp.i, label %if.end, label %cleanup.cont

if.end:                                           ; preds = %entry
  store ptr getelementptr inbounds ({ [13 x ptr] }, ptr @_ZTVN6icu_7513UnicodeStringE, i64 0, i32 0, i64 2), ptr %pattern, align 8
  %fUnion2.i = getelementptr inbounds i8, ptr %pattern, i64 8
  store i16 2, ptr %fUnion2.i, align 8
  %call2 = invoke noundef nonnull align 8 dereferenceable(64) ptr @_ZNK6icu_7521RuleCharacterIterator9lookaheadERNS_13UnicodeStringEi(ptr noundef nonnull align 8 dereferenceable(36) %chars, ptr noundef nonnull align 8 dereferenceable(64) %pattern, i32 noundef -1)
          to label %invoke.cont unwind label %lpad

invoke.cont:                                      ; preds = %if.end
  store ptr getelementptr inbounds ({ [5 x ptr] }, ptr @_ZTVN6icu_7513ParsePositionE, i64 0, i32 0, i64 2), ptr %pos, align 8
  %index.i = getelementptr inbounds i8, ptr %pos, i64 8
  store i32 0, ptr %index.i, align 8
  %errorIndex.i = getelementptr inbounds i8, ptr %pos, i64 12
  store i32 -1, ptr %errorIndex.i, align 4
  %call6 = invoke noundef nonnull align 8 dereferenceable(200) ptr @_ZN6icu_7510UnicodeSet20applyPropertyPatternERKNS_13UnicodeStringERNS_13ParsePositionER10UErrorCode(ptr noundef nonnull align 8 dereferenceable(200) %this, ptr noundef nonnull align 8 dereferenceable(64) %pattern, ptr noundef nonnull align 8 dereferenceable(16) %pos, ptr noundef nonnull align 4 dereferenceable(4) %ec)
          to label %invoke.cont5 unwind label %lpad4

invoke.cont5:                                     ; preds = %invoke.cont
  %1 = load i32, ptr %ec, align 4
  %cmp.i6 = icmp slt i32 %1, 1
  br i1 %cmp.i6, label %if.end11, label %cleanup

lpad:                                             ; preds = %if.end
  %2 = landingpad { ptr, i32 }
          cleanup
  br label %ehcleanup

lpad4:                                            ; preds = %invoke.cont18, %if.end15, %invoke.cont
  %3 = landingpad { ptr, i32 }
          cleanup
  call void @_ZN6icu_7513ParsePositionD1Ev(ptr noundef nonnull align 8 dereferenceable(16) %pos) #15
  br label %ehcleanup

if.end11:                                         ; preds = %invoke.cont5
  %4 = load i32, ptr %index.i, align 8
  %cmp = icmp eq i32 %4, 0
  br i1 %cmp, label %if.then14, label %if.end15

if.then14:                                        ; preds = %if.end11
  store i32 65538, ptr %ec, align 4
  br label %cleanup

if.end15:                                         ; preds = %if.end11
  invoke void @_ZN6icu_7521RuleCharacterIterator9jumpaheadEi(ptr noundef nonnull align 8 dereferenceable(36) %chars, i32 noundef %4)
          to label %invoke.cont18 unwind label %lpad4

invoke.cont18:                                    ; preds = %if.end15
  %5 = load i32, ptr %index.i, align 8
  %call.i11 = invoke noundef nonnull align 8 dereferenceable(64) ptr @_ZN6icu_7513UnicodeString8doAppendERKS0_ii(ptr noundef nonnull align 8 dereferenceable(64) %rebuiltPat, ptr noundef nonnull align 8 dereferenceable(64) %pattern, i32 noundef 0, i32 noundef %5)
          to label %cleanup unwind label %lpad4

cleanup:                                          ; preds = %invoke.cont18, %invoke.cont5, %if.then14
  call void @_ZN6icu_7513ParsePositionD1Ev(ptr noundef nonnull align 8 dereferenceable(16) %pos) #15
  call void @_ZN6icu_7513UnicodeStringD1Ev(ptr noundef nonnull align 8 dereferenceable(64) %pattern) #15
  br label %cleanup.cont

cleanup.cont:                                     ; preds = %entry, %cleanup
  ret void

ehcleanup:                                        ; preds = %lpad4, %lpad
  %.pn = phi { ptr, i32 } [ %3, %lpad4 ], [ %2, %lpad ]
  call void @_ZN6icu_7513UnicodeStringD1Ev(ptr noundef nonnull align 8 dereferenceable(64) %pattern) #15
  resume { ptr, i32 } %.pn
}